; Function Attrs: nofree norecurse nosync nounwind memory(argmem: readwrite) uwtable
define i32 @TextCopy(ptr noundef writeonly captures(address_is_null) %0, ptr noundef readonly captures(address_is_null) %1) local_unnamed_addr #27 {
  %3 = icmp ne ptr %1, null
  %4 = icmp ne ptr %0, null
  %or.cond = and i1 %4, %3
  br i1 %or.cond, label %.preheader, label %11

.preheader:                                       ; preds = %2
  %5 = load i8, ptr %1, align 1
  %.not14 = icmp eq i8 %5, 0
  br i1 %.not14, label %._crit_edge, label %.lr.ph

.lr.ph:                                           ; preds = %.preheader, %.lr.ph
  %6 = phi i8 [ %10, %.lr.ph ], [ %5, %.preheader ]
  %.117 = phi i32 [ %9, %.lr.ph ], [ 0, %.preheader ]
  %.01016 = phi ptr [ %8, %.lr.ph ], [ %1, %.preheader ]
  %.01115 = phi ptr [ %7, %.lr.ph ], [ %0, %.preheader ]
  store i8 %6, ptr %.01115, align 1
  %7 = getelementptr inbounds nuw i8, ptr %.01115, i64 1
  %8 = getelementptr inbounds nuw i8, ptr %.01016, i64 1
  %9 = add nuw nsw i32 %.117, 1
  %10 = load i8, ptr %8, align 1
  %.not = icmp eq i8 %10, 0
  br i1 %.not, label %._crit_edge, label %.lr.ph

._crit_edge:                                      ; preds = %.lr.ph, %.preheader
  %.011.lcssa = phi ptr [ %0, %.preheader ], [ %7, %.lr.ph ]
  %.1.lcssa = phi i32 [ 0, %.preheader ], [ %9, %.lr.ph ]
  store i8 0, ptr %.011.lcssa, align 1
  br label %11

11:                                               ; preds = %._crit_edge, %2
  %.0 = phi i32 [ %.1.lcssa, %._crit_edge ], [ 0, %2 ]
  ret i32 %.0
}